; Function Attrs: nounwind uwtable
define dso_local range(i32 -1, 1) i32 @FileFallocate(i32 noundef %0, i64 noundef %1, i64 noundef %2, i32 noundef %3) local_unnamed_addr #0 {
  %5 = tail call fastcc i32 @FileAccess(i32 noundef %0)
  %6 = icmp slt i32 %5, 0
  br i1 %6, label %FileZero.exit, label %.preheader

.preheader:                                       ; preds = %4
  %7 = sext i32 %0 to i64
  br label %8

8:                                                ; preds = %.preheader, %8
  %9 = load ptr, ptr @my_wait_event_info, align 8
  store volatile i32 %3, ptr %9, align 4
  %10 = load ptr, ptr @VfdCache, align 8
  %11 = getelementptr inbounds %struct.vfd, ptr %10, i64 %7
  %12 = load i32, ptr %11, align 8
  %13 = tail call i32 @posix_fallocate(i32 noundef %12, i64 noundef %1, i64 noundef %2) #25
  %14 = load ptr, ptr @my_wait_event_info, align 8
  store volatile i32 0, ptr %14, align 4
  switch i32 %13, label %15 [
    i32 0, label %FileZero.exit
    i32 4, label %8
  ]

15:                                               ; preds = %8
  %16 = tail call ptr @__errno_location() #26
  store i32 %13, ptr %16, align 4
  switch i32 %13, label %FileZero.exit [
    i32 95, label %17
    i32 22, label %17
  ]

17:                                               ; preds = %15, %15
  %18 = tail call fastcc i32 @FileAccess(i32 noundef %0)
  %19 = icmp slt i32 %18, 0
  br i1 %19, label %FileZero.exit, label %20

20:                                               ; preds = %17
  %21 = load ptr, ptr @my_wait_event_info, align 8
  store volatile i32 %3, ptr %21, align 4
  %22 = load ptr, ptr @VfdCache, align 8
  %23 = getelementptr inbounds %struct.vfd, ptr %22, i64 %7
  %24 = load i32, ptr %23, align 8
  %25 = tail call i64 @pg_pwrite_zeros(i32 noundef %24, i64 noundef %2, i64 noundef %1) #25
  %26 = load ptr, ptr @my_wait_event_info, align 8
  store volatile i32 0, ptr %26, align 4
  %27 = icmp slt i64 %25, 0
  br i1 %27, label %FileZero.exit, label %28

28:                                               ; preds = %20
  %.not.i = icmp eq i64 %25, %2
  br i1 %.not.i, label %FileZero.exit, label %29

29:                                               ; preds = %28
  %30 = load i32, ptr %16, align 4
  %31 = icmp eq i32 %30, 0
  br i1 %31, label %32, label %FileZero.exit

32:                                               ; preds = %29
  store i32 28, ptr %16, align 4
  br label %FileZero.exit

FileZero.exit:                                    ; preds = %8, %32, %29, %28, %20, %17, %15, %4
  %.0 = phi i32 [ -1, %4 ], [ -1, %15 ], [ -1, %17 ], [ -1, %20 ], [ -1, %32 ], [ -1, %29 ], [ 0, %28 ], [ %13, %8 ]
  ret i32 %.0
}